	.file	"array-lib.c"
	.text
.globl init_array
	.type	init_array, @function
init_array:
.LFB0:
	.cfi_startproc
	pushq	%rbp
	.cfi_def_cfa_offset 16
	.cfi_offset 6, -16
	movq	%rsp, %rbp
	.cfi_def_cfa_register 6
	movl	%edi, -20(%rbp)
	movl	$0, -4(%rbp)
	jmp	.L2
.L3:
	movl	-4(%rbp), %eax
	cltq
	movl	-4(%rbp), %edx
	movl	%edx, a(,%rax,4)
	addl	$1, -4(%rbp)
.L2:
	movl	-4(%rbp), %eax
	cmpl	-20(%rbp), %eax
	jl	.L3
	leave
	.cfi_def_cfa 7, 8
	ret
	.cfi_endproc
.LFE0:
	.size	init_array, .-init_array
	.section	.rodata
.LC0:
	.string	"%d\n"
	.text
.globl print_array
	.type	print_array, @function
print_array:
.LFB1:
	.cfi_startproc
	pushq	%rbp
	.cfi_def_cfa_offset 16
	.cfi_offset 6, -16
	movq	%rsp, %rbp
	.cfi_def_cfa_register 6
	subq	$32, %rsp
	movl	%edi, -20(%rbp)
	movl	$0, -4(%rbp)
	jmp	.L6
.L7:
	movl	-4(%rbp), %eax
	cltq
	movl	a(,%rax,4), %eax
	movl	%eax, %esi
	movl	$.LC0, %edi
	movl	$0, %eax
	call	printf
	addl	$1, -4(%rbp)
.L6:
	movl	-4(%rbp), %eax
	cmpl	-20(%rbp), %eax
	jl	.L7
	leave
	.cfi_def_cfa 7, 8
	ret
	.cfi_endproc
.LFE1:
	.size	print_array, .-print_array
	.ident	"GCC: (GNU) 4.4.7 20120313 (Red Hat 4.4.7-17)"
	.section	.note.GNU-stack,"",@progbits
